target datalayout = "e-m:e-p270:32:32-p271:32:32-p272:64:64-i64:64-i128:128-f80:128-n8:16:32:64-S128"
target triple = "x86_64-pc-linux-gnu"

%struct.GlobalContext = type { %struct.HTable, ptr, ptr, ptr, ptr, ptr, ptr, ptr, ptr, i8, i32, i32, i32, ptr, ptr, %struct.HTable, %struct.HTable, %struct.Module_, %struct.DeclTable, %struct.DeclTable, %struct.Path_, ptr, ptr, ptr, ptr, ptr, ptr, ptr, [65536 x ptr], ptr, ptr, ptr }
%struct.HTable = type { i32, ptr }
%struct.Module_ = type { ptr, ptr, ptr, i16, i32, ptr, %struct.HTable, ptr, ptr, ptr, ptr, ptr, ptr, ptr, ptr, ptr }
%struct.DeclTable = type { i32, i32, i32, ptr }
%struct.Path_ = type { %union.SourceSpan, ptr, i32 }
%union.SourceSpan = type { i64 }
%struct.Decl_ = type { ptr, ptr, %union.SourceSpan, i64, %union.anon, i32, %union.anon.0, i64, ptr, ptr, ptr, %union.anon.1 }
%union.anon = type { ptr }
%union.anon.0 = type { i16 }
%union.anon.1 = type { %struct.FuncDecl }
%struct.FuncDecl = type { i32, [4 x i8], %struct.Signature_, i32, i32, %union.anon.8 }
%struct.Signature_ = type <{ %struct.CalleeAttributes, i16, i8, i32, i32, [4 x i8], ptr }>
%struct.CalleeAttributes = type { i8 }
%union.anon.8 = type { %struct.anon.9 }
%struct.anon.9 = type { i16, %union.anon.10 }
%union.anon.10 = type { ptr }

@global_context = external global %struct.GlobalContext, align 8

; Function Attrs: nounwind uwtable
define dso_local void @sema_decl_stack_restore(ptr noundef %0) #0 {
  %2 = alloca ptr, align 8
  store ptr %0, ptr %2, align 8
  %3 = load ptr, ptr getelementptr inbounds (%struct.GlobalContext, ptr @global_context, i32 0, i32 29), align 8
  store ptr %3, ptr getelementptr inbounds (%struct.GlobalContext, ptr @global_context, i32 0, i32 30), align 8
  %4 = load ptr, ptr %2, align 8
  store ptr %4, ptr getelementptr inbounds (%struct.GlobalContext, ptr @global_context, i32 0, i32 29), align 8
  ret void
}

; Function Attrs: nounwind uwtable
define dso_local ptr @sema_decl_stack_resolve_symbol(ptr noundef %0) #0 {
  %2 = alloca ptr, align 8
  %3 = alloca ptr, align 8
  %4 = alloca ptr, align 8
  %5 = alloca ptr, align 8
  %6 = alloca ptr, align 8
  %7 = alloca ptr, align 8
  store ptr %0, ptr %3, align 8
  store ptr getelementptr inbounds (%struct.GlobalContext, ptr @global_context, i32 0, i32 28), ptr %4, align 8
  %8 = load ptr, ptr getelementptr inbounds (%struct.GlobalContext, ptr @global_context, i32 0, i32 30), align 8
  store ptr %8, ptr %5, align 8
  %9 = load ptr, ptr getelementptr inbounds (%struct.GlobalContext, ptr @global_context, i32 0, i32 29), align 8
  store ptr %9, ptr %6, align 8
  br label %10

10:                                               ; preds = %25, %1
  %11 = load ptr, ptr %5, align 8
  %12 = load ptr, ptr %6, align 8
  %13 = icmp ugt ptr %11, %12
  br i1 %13, label %14, label %26

14:                                               ; preds = %10
  %15 = load ptr, ptr %5, align 8
  %16 = getelementptr inbounds ptr, ptr %15, i32 -1
  store ptr %16, ptr %5, align 8
  %17 = load ptr, ptr %16, align 8
  store ptr %17, ptr %7, align 8
  %18 = load ptr, ptr %7, align 8
  %19 = getelementptr inbounds %struct.Decl_, ptr %18, i32 0, i32 0
  %20 = load ptr, ptr %19, align 8
  %21 = load ptr, ptr %3, align 8
  %22 = icmp eq ptr %20, %21
  br i1 %22, label %23, label %25

23:                                               ; preds = %14
  %24 = load ptr, ptr %7, align 8
  store ptr %24, ptr %2, align 8
  br label %27

25:                                               ; preds = %14
  br label %10, !llvm.loop !7

26:                                               ; preds = %10
  store ptr null, ptr %2, align 8
  br label %27

27:                                               ; preds = %26, %23
  %28 = load ptr, ptr %2, align 8
  ret ptr %28
}

; Function Attrs: nounwind uwtable
define dso_local ptr @sema_decl_stack_store() #0 {
  %1 = alloca ptr, align 8
  %2 = load ptr, ptr getelementptr inbounds (%struct.GlobalContext, ptr @global_context, i32 0, i32 29), align 8
  store ptr %2, ptr %1, align 8
  %3 = load ptr, ptr getelementptr inbounds (%struct.GlobalContext, ptr @global_context, i32 0, i32 30), align 8
  store ptr %3, ptr getelementptr inbounds (%struct.GlobalContext, ptr @global_context, i32 0, i32 29), align 8
  %4 = load ptr, ptr %1, align 8
  ret ptr %4
}

; Function Attrs: nounwind uwtable
define dso_local ptr @sema_decl_stack_find_decl_member(ptr noundef %0, ptr noundef %1) #0 {
  %3 = alloca ptr, align 8
  %4 = alloca ptr, align 8
  %5 = alloca ptr, align 8
  %6 = alloca ptr, align 8
  store ptr %0, ptr %3, align 8
  store ptr %1, ptr %4, align 8
  %7 = call ptr @sema_decl_stack_store()
  store ptr %7, ptr %5, align 8
  %8 = load ptr, ptr %3, align 8
  call void @add_members_to_decl_stack(ptr noundef %8)
  %9 = load ptr, ptr %4, align 8
  %10 = call ptr @sema_decl_stack_resolve_symbol(ptr noundef %9)
  store ptr %10, ptr %6, align 8
  %11 = load ptr, ptr %5, align 8
  call void @sema_decl_stack_restore(ptr noundef %11)
  %12 = load ptr, ptr %6, align 8
  ret ptr %12
}