; Function Attrs: nounwind uwtable
define dso_local noundef ptr @sema_decl_stack_find_decl_member(ptr nocapture noundef readonly %0, ptr noundef readnone %1) local_unnamed_addr #2 {
  %3 = load ptr, ptr getelementptr inbounds (%struct.GlobalContext, ptr @global_context, i64 0, i32 29), align 8
  %4 = load ptr, ptr getelementptr inbounds (%struct.GlobalContext, ptr @global_context, i64 0, i32 30), align 8
  store ptr %4, ptr getelementptr inbounds (%struct.GlobalContext, ptr @global_context, i64 0, i32 29), align 8
  tail call fastcc void @add_members_to_decl_stack(ptr noundef %0)
  %5 = load ptr, ptr getelementptr inbounds (%struct.GlobalContext, ptr @global_context, i64 0, i32 30), align 8
  %6 = load ptr, ptr getelementptr inbounds (%struct.GlobalContext, ptr @global_context, i64 0, i32 29), align 8
  br label %7

7:                                                ; preds = %9, %2
  %.07.i = phi ptr [ %5, %2 ], [ %10, %9 ]
  %8 = icmp ugt ptr %.07.i, %6
  br i1 %8, label %9, label %sema_decl_stack_resolve_symbol.exit

9:                                                ; preds = %7
  %10 = getelementptr inbounds i8, ptr %.07.i, i64 -8
  %11 = load ptr, ptr %10, align 8
  %12 = load ptr, ptr %11, align 8
  %13 = icmp eq ptr %12, %1
  br i1 %13, label %sema_decl_stack_resolve_symbol.exit, label %7, !llvm.loop !7

sema_decl_stack_resolve_symbol.exit:              ; preds = %7, %9
  %.0.i = phi ptr [ %11, %9 ], [ null, %7 ]
  store ptr %6, ptr getelementptr inbounds (%struct.GlobalContext, ptr @global_context, i64 0, i32 30), align 8
  store ptr %3, ptr getelementptr inbounds (%struct.GlobalContext, ptr @global_context, i64 0, i32 29), align 8
  ret ptr %.0.i
}